target datalayout = "e-m:e-p270:32:32-p271:32:32-p272:64:64-i64:64-i128:128-f80:128-n8:16:32:64-S128"
target triple = "x86_64-pc-linux-gnu"

%"class.google::protobuf::io::Tokenizer" = type { %"struct.google::protobuf::io::Tokenizer::Token", %"struct.google::protobuf::io::Tokenizer::Token", ptr, ptr, i8, ptr, i32, i32, i8, i32, i32, ptr, i32, i8, i32, i8, i8, i8, i8 }
%"struct.google::protobuf::io::Tokenizer::Token" = type <{ i32, [4 x i8], %"class.std::__cxx11::basic_string", i32, i32, i32, [4 x i8] }>
%"class.std::__cxx11::basic_string" = type { %"struct.std::__cxx11::basic_string<char>::_Alloc_hider", i64, %union.anon }
%"struct.std::__cxx11::basic_string<char>::_Alloc_hider" = type { ptr }
%union.anon = type { i64, [8 x i8] }

; Function Attrs: mustprogress nounwind uwtable
define hidden void @_ZN6google8protobuf2io9Tokenizer19set_report_newlinesEb(ptr noundef nonnull align 8 dereferenceable(192) %0, i1 noundef zeroext %1) #4 align 2 {
  %3 = alloca ptr, align 8
  %4 = alloca i8, align 1
  store ptr %0, ptr %3, align 8, !tbaa !8
  %5 = zext i1 %1 to i8
  store i8 %5, ptr %4, align 1, !tbaa !54
  %6 = load ptr, ptr %3, align 8
  %7 = load i8, ptr %4, align 1, !tbaa !54, !range !45, !noundef !46
  %8 = trunc i8 %7 to i1
  %9 = getelementptr inbounds nuw %"class.google::protobuf::io::Tokenizer", ptr %6, i32 0, i32 18
  %10 = zext i1 %8 to i8
  store i8 %10, ptr %9, align 1, !tbaa !38
  %11 = load i8, ptr %4, align 1, !tbaa !54, !range !45, !noundef !46
  %12 = trunc i8 %11 to i1
  %13 = zext i1 %12 to i32
  %14 = getelementptr inbounds nuw %"class.google::protobuf::io::Tokenizer", ptr %6, i32 0, i32 17
  %15 = load i8, ptr %14, align 2, !tbaa !37, !range !45, !noundef !46
  %16 = trunc i8 %15 to i1
  %17 = zext i1 %16 to i32
  %18 = or i32 %17, %13
  %19 = icmp ne i32 %18, 0
  %20 = zext i1 %19 to i8
  store i8 %20, ptr %14, align 2, !tbaa !37
  ret void
}